; Function Attrs: mustprogress uwtable
define noundef nonnull align 8 dereferenceable(152) ptr @_ZN4LIEF5MachO20DynamicSymbolCommandaSERKS1_(ptr noundef nonnull returned align 8 dereferenceable(152) %0, ptr noundef nonnull align 8 dereferenceable(152) %1) local_unnamed_addr #0 align 2 personality ptr @__gxx_personality_v0 {
  %3 = alloca %"class.LIEF::MachO::LoadCommand", align 8
  call void @_ZN4LIEF5MachO11LoadCommandC1ERKS1_(ptr noundef nonnull align 8 dereferenceable(56) %3, ptr noundef nonnull align 8 dereferenceable(56) %1)
  %4 = invoke noundef nonnull align 8 dereferenceable(56) ptr @_ZN4LIEF5MachO11LoadCommandaSES1_(ptr noundef nonnull align 8 dereferenceable(56) %0, ptr noundef nonnull %3)
          to label %5 unwind label %11

5:                                                ; preds = %2
  call void @_ZN4LIEF5MachO11LoadCommandD1Ev(ptr noundef nonnull align 8 dereferenceable(56) %3) #11
  %6 = getelementptr inbounds i8, ptr %0, i64 56
  %7 = getelementptr inbounds i8, ptr %1, i64 56
  call void @llvm.memcpy.p0.p0.i64(ptr noundef nonnull align 8 dereferenceable(72) %6, ptr noundef nonnull align 8 dereferenceable(72) %7, i64 72, i1 false)
  %8 = getelementptr inbounds i8, ptr %0, i64 128
  %9 = getelementptr inbounds i8, ptr %1, i64 128
  %10 = call noundef nonnull align 8 dereferenceable(24) ptr @_ZNSt6vectorIPN4LIEF5MachO6SymbolESaIS3_EEaSERKS5_(ptr noundef nonnull align 8 dereferenceable(24) %8, ptr noundef nonnull align 8 dereferenceable(24) %9)
  ret ptr %0

11:                                               ; preds = %2
  %12 = landingpad { ptr, i32 }
          cleanup
  call void @_ZN4LIEF5MachO11LoadCommandD1Ev(ptr noundef nonnull align 8 dereferenceable(56) %3) #11
  resume { ptr, i32 } %12
}